Certificate:
    Data:
        Version: 3 (0x2)
        Serial Number: 4099 (0x1003)
    Signature Algorithm: sha256WithRSAEncryption
        Issuer: C=GR, O=Greek Trust Services, OU=Qualified Services, CN=Greek Trust QES Natural CA
        Validity
            Not Before: Nov 14 04:17:24 2025 GMT
            Not After : Nov 14 04:17:24 2026 GMT
        Subject: CN=Greek Trust OCSP Responder, C=GR
        Subject Public Key Info:
            Public Key Algorithm: rsaEncryption
                RSA Public-Key: (2048 bit)
                Modulus:
                    00:a5:04:e8:6a:59:25:79:81:b9:5d:2e:f5:56:d1:
                    32:43:2d:95:4e:69:77:04:87:f6:ec:f9:b7:00:72:
                    9c:2a:d2:b0:d1:84:1c:3b:b0:12:00:a7:88:61:e2:
                    7c:f1:da:a6:ef:94:95:77:8b:20:24:34:eb:94:18:
                    35:fd:78:c9:de:77:0c:10:53:1a:7a:67:ee:9b:57:
                    ff:cb:13:a4:80:c4:53:98:04:2f:80:33:75:dc:54:
                    92:f9:e7:6f:11:ae:77:96:a0:dc:a2:62:4d:5d:82:
                    04:08:27:03:50:50:88:d7:7c:ea:bf:58:e6:9d:75:
                    49:a5:3a:ac:eb:b9:cb:a2:23:da:85:7d:bc:5a:ed:
                    a6:0f:9d:6a:d5:c0:4b:53:50:04:b3:f0:10:5d:a1:
                    07:27:69:d7:22:10:b3:85:9d:a5:94:fa:7e:ae:bc:
                    18:b8:e2:4e:a8:79:80:5e:e6:98:90:f6:fe:54:2f:
                    06:29:d8:38:26:5f:a7:bf:3c:e7:19:13:f7:c0:fd:
                    4e:12:73:96:7c:e5:37:c7:03:7a:4a:51:b5:71:43:
                    ed:16:96:12:e2:26:ba:71:dd:1d:bb:e9:9c:9e:0e:
                    65:a2:9f:d6:bc:df:a6:17:9e:e5:8d:58:5f:a5:de:
                    74:b1:e7:95:71:d5:00:31:24:bd:1a:a9:54:7b:3b:
                    4e:79
                Exponent: 65537 (0x10001)
        X509v3 extensions:
            X509v3 Key Usage: 
                Digital Signature
            X509v3 Extended Key Usage: 
                OCSP Signing
            X509v3 Subject Key Identifier: 
                88:2E:44:76:61:86:00:96:37:8F:4B:5E:F2:25:9E:4A:87:B1:92:92
            X509v3 Authority Key Identifier: 
                keyid:2D:21:70:E6:32:F6:25:BF:4E:B6:13:8F:6F:08:50:1E:1E:4E:FB:D7

    Signature Algorithm: sha256WithRSAEncryption
         5b:97:7c:b5:c1:2c:ac:ad:f1:1b:86:e5:c2:52:c0:57:e7:40:
         9d:56:fa:17:fa:d0:81:7a:a0:d0:82:ef:ab:96:13:34:10:a6:
         2b:b8:d5:ce:16:54:bd:4f:18:9e:84:94:52:b5:43:f3:d4:af:
         1f:17:f4:ba:c6:ea:44:8e:43:b1:05:88:7d:2a:9c:78:15:18:
         ae:fa:d8:2b:75:41:1d:58:d6:f1:a6:db:a0:be:af:21:91:63:
         ba:52:92:79:11:e6:78:c8:cd:d6:66:a9:ff:67:65:91:66:85:
         0e:f4:80:77:97:f6:b6:9d:a1:e0:e6:6b:9f:a0:cc:03:e3:06:
         1a:6e:3e:ab:6f:60:a7:ae:2c:f7:31:3f:6f:23:aa:13:f4:1a:
         72:04:d7:96:66:f8:45:e1:55:5c:c7:22:a1:24:1b:00:5e:1e:
         4c:22:bd:ed:32:a1:71:27:33:0e:6e:50:16:7d:55:66:29:f8:
         3b:f6:17:76:50:ae:24:f9:80:7d:ae:6b:7b:69:ed:26:ac:61:
         ff:96:25:cf:bd:db:0e:3c:d1:9d:c6:b0:58:ad:7d:39:5a:46:
         7f:30:7d:60:2a:e5:97:96:83:6b:50:8f:c8:7d:e0:d6:96:4c:
         ac:32:ce:37:64:f3:ab:05:f2:bc:f4:69:a8:de:d4:7b:f3:74:
         48:03:c6:c1:71:77:cc:40:04:d3:f6:b6:31:8f:ef:4b:27:7f:
         c7:cf:1c:c0:77:6a:ec:9a:86:d3:e6:bc:0d:75:e2:e3:d6:49:
         f3:cf:6c:80:8e:bd:43:5c:3e:f7:71:40:fd:4e:90:31:98:f4:
         2f:1a:93:ac:f6:97:0b:7f:d9:04:8c:99:cc:52:c7:20:89:2a:
         06:15:cd:1b:0b:00:15:a5:e5:59:2c:cb:3d:7e:35:88:75:30:
         c6:c4:7d:d2:10:4a:e5:bc:7a:b8:53:bf:31:63:05:63:00:0b:
         c7:1e:d6:ed:81:47:18:b4:9b:87:d8:ed:c7:3d:76:86:27:33:
         73:f6:87:97:10:07
-----BEGIN CERTIFICATE-----
MIIEADCCAmigAwIBAgICEAMwDQYJKoZIhvcNAQELBQAwbjELMAkGA1UEBhMCR1Ix
HTAbBgNVBAoMFEdyZWVrIFRydXN0IFNlcnZpY2VzMRswGQYDVQQLDBJRdWFsaWZp
ZWQgU2VydmljZXMxIzAhBgNVBAMMGkdyZWVrIFRydXN0IFFFUyBOYXR1cmFsIENB
MB4XDTI1MTExNDA0MTcyNFoXDTI2MTExNDA0MTcyNFowMjEjMCEGA1UEAwwaR3Jl
ZWsgVHJ1c3QgT0NTUCBSZXNwb25kZXIxCzAJBgNVBAYTAkdSMIIBIjANBgkqhkiG
9w0BAQEFAAOCAQ8AMIIBCgKCAQEApQToalkleYG5XS71VtEyQy2VTml3BIf27Pm3
AHKcKtKw0YQcO7ASAKeIYeJ88dqm75SVd4sgJDTrlBg1/XjJ3ncMEFMaemfum1f/
yxOkgMRTmAQvgDN13FSS+edvEa53lqDcomJNXYIECCcDUFCI13zqv1jmnXVJpTqs
67nLoiPahX28Wu2mD51q1cBLU1AEs/AQXaEHJ2nXIhCzhZ2llPp+rrwYuOJOqHmA
XuaYkPb+VC8GKdg4Jl+nvzznGRP3wP1OEnOWfOU3xwN6SlG1cUPtFpYS4ia6cd0d
u+mcng5lop/WvN+mF57ljVhfpd50seeVcdUAMSS9GqlUeztOeQIDAQABo2QwYjAL
BgNVHQ8EBAMCB4AwEwYDVR0lBAwwCgYIKwYBBQUHAwkwHQYDVR0OBBYEFIguRHZh
hgCWN49LXvIlnkqHsZKSMB8GA1UdIwQYMBaAFC0hcOYy9iW/TrYTj28IUB4eTvvX
MA0GCSqGSIb3DQEBCwUAA4IBgQBbl3y1wSysrfEbhuXCUsBX50CdVvoX+tCBeqDQ
gu+rlhM0EKYruNXOFlS9TxiehJRStUPz1K8fF/S6xupEjkOxBYh9Kpx4FRiu+tgr
dUEdWNbxptugvq8hkWO6UpJ5EeZ4yM3WZqn/Z2WRZoUO9IB3l/a2naHg5mufoMwD
4wYabj6rb2Cnriz3MT9vI6oT9BpyBNeWZvhF4VVcxyKhJBsAXh5MIr3tMqFxJzMO
blAWfVVmKfg79hd2UK4k+YB9rmt7ae0mrGH/liXPvdsOPNGdxrBYrX05WkZ/MH1g
KuWXloNrUI/IfeDWlkysMs43ZPOrBfK89Gmo3tR783RIA8bBcXfMQATT9rYxj+9L
J3/HzxzAd2rsmobT5rwNdeLj1knzz2yAjr1DXD73cUD9TpAxmPQvGpOs9pcLf9kE
jJnMUscgiSoGFc0bCwAVpeVZLMs9fjWIdTDGxH3SEErlvHq4U78xYwVjAAvHHtbt
gUcYtJuH2O3HPXaGJzNz9oeXEAc=
-----END CERTIFICATE-----
