Certificate:
    Data:
        Version: 3 (0x2)
        Serial Number: 4096 (0x1000)
    Signature Algorithm: sha256WithRSAEncryption
        Issuer: C=GR, O=Greek Trust Services, OU=Qualified Services, CN=Greek Trust QES Natural CA
        Validity
            Not Before: Nov 14 04:16:31 2025 GMT
            Not After : Nov 14 04:16:31 2026 GMT
        Subject: CN=Sample QES Natural Person, C=GR
        Subject Public Key Info:
            Public Key Algorithm: rsaEncryption
                RSA Public-Key: (2048 bit)
                Modulus:
                    00:bc:51:65:ce:9b:95:ca:42:53:8d:91:27:f3:9a:
                    98:ab:39:e1:54:66:f4:68:ef:74:4c:81:70:7a:2e:
                    94:49:82:8a:43:ae:7d:72:26:d1:0f:c2:17:e5:e1:
                    10:ee:7e:80:f0:3d:d5:08:18:14:30:52:28:82:9e:
                    24:a9:2a:86:c9:f2:d6:b2:ef:f4:7b:f5:b1:be:0b:
                    02:3e:ce:e0:22:1e:d6:f1:10:85:ce:71:13:b8:7a:
                    d3:83:2f:5b:2c:ea:85:8e:6e:3e:97:9a:cb:3b:67:
                    43:3d:db:cb:06:85:83:38:a2:4c:21:59:ec:42:d5:
                    05:bc:c2:fe:66:a6:b8:18:3d:d8:c1:51:00:68:42:
                    ae:1c:b9:a7:13:cc:f8:75:30:c9:95:7e:91:ff:ae:
                    1c:95:53:8c:22:a4:35:94:0a:da:87:d4:a2:c2:c1:
                    9f:24:09:db:df:a9:b5:2b:34:00:ba:55:af:fb:65:
                    14:d3:a6:0a:e6:e2:e6:8a:3b:22:d8:4e:b2:83:c2:
                    47:7c:50:e6:b8:2d:41:b9:1d:ec:76:86:12:8f:bf:
                    cc:57:29:8c:05:97:b2:37:57:93:f7:16:8f:ea:d7:
                    3e:b3:d3:c0:88:b2:e3:cd:8b:ce:56:8e:8b:7d:1b:
                    87:71:f5:e4:e9:76:86:97:c2:f6:7a:0b:25:ec:e6:
                    9d:f9
                Exponent: 65537 (0x10001)
        X509v3 extensions:
            X509v3 Basic Constraints: 
                CA:FALSE
            X509v3 Key Usage: 
                Digital Signature, Non Repudiation, Key Encipherment
            X509v3 Extended Key Usage: 
                TLS Web Client Authentication, E-mail Protection
            X509v3 Subject Key Identifier: 
                0B:10:05:3B:2C:75:F3:72:7C:94:DF:92:1E:A0:A9:3A:FD:C1:E9:2E
            X509v3 Authority Key Identifier: 
                keyid:2D:21:70:E6:32:F6:25:BF:4E:B6:13:8F:6F:08:50:1E:1E:4E:FB:D7

            X509v3 CRL Distribution Points: 

                Full Name:
                  URI:http://example.com/crl/qes_ca.crl

            Authority Information Access: 
                OCSP - URI:http://example.com/ocsp/qes

    Signature Algorithm: sha256WithRSAEncryption
         2c:d3:f8:c3:7c:32:42:af:3a:48:15:0f:ed:f5:b2:8a:11:33:
         d5:4a:35:ca:86:af:00:05:2a:5d:f8:38:38:73:ff:62:16:54:
         0f:ff:0d:47:7e:3b:5f:ac:57:9a:50:dc:98:a0:f0:e5:3a:ae:
         52:b0:f5:30:4c:c7:ea:43:9f:b8:87:c8:fe:80:b7:7e:dd:d2:
         19:df:ab:27:9b:13:60:3d:76:59:c4:b9:02:ed:fe:5d:48:e2:
         76:6c:c6:24:f7:c1:7d:6b:b6:8f:87:79:e9:1c:22:fc:39:cc:
         3e:77:8c:3c:12:5a:a0:29:0e:45:3c:ea:16:5d:a5:b9:30:ec:
         07:10:4e:1a:c6:3e:29:db:02:1d:f9:a9:16:a6:24:55:e6:a4:
         03:d8:ff:ce:60:21:4f:7b:82:f8:88:85:ec:24:4b:fd:b6:6d:
         7e:1c:ff:ca:58:f0:a8:6d:e7:04:4a:d2:d7:3f:82:e4:54:3d:
         35:6e:bf:21:89:49:a3:bc:c9:e7:e3:5e:74:8a:9f:c4:a7:54:
         5d:69:9b:0e:64:b6:a8:5d:b6:5e:e1:fb:87:c3:eb:16:61:dc:
         5b:78:85:e0:9d:de:bc:64:ff:d5:c3:19:41:bb:63:e4:fd:49:
         22:56:d3:72:69:13:0d:9c:a1:0e:4b:43:ae:35:94:5f:7c:11:
         6a:f0:ad:8e:1d:b7:04:36:82:f7:1a:93:25:16:c2:06:3f:1e:
         07:4b:0b:9f:74:a8:56:79:03:66:05:3f:09:65:b3:84:dc:d2:
         ac:ed:c9:e3:c8:d7:c0:28:4f:3b:c3:ed:53:42:7c:c8:78:09:
         39:d8:d1:fe:41:8c:e4:f4:2f:6f:2b:c3:d0:bd:ac:de:0f:ed:
         de:f8:8f:a5:54:0d:3c:77:30:0a:e2:51:04:8c:e4:d6:df:6a:
         00:e7:3f:ab:9a:87:1e:9e:8d:7b:61:57:e3:88:1a:37:67:c3:
         60:69:ae:8a:62:0c:80:29:e0:b2:df:d7:b9:68:9f:c3:15:5f:
         aa:dd:21:6f:77:9b
-----BEGIN CERTIFICATE-----
MIIEgzCCAuugAwIBAgICEAAwDQYJKoZIhvcNAQELBQAwbjELMAkGA1UEBhMCR1Ix
HTAbBgNVBAoMFEdyZWVrIFRydXN0IFNlcnZpY2VzMRswGQYDVQQLDBJRdWFsaWZp
ZWQgU2VydmljZXMxIzAhBgNVBAMMGkdyZWVrIFRydXN0IFFFUyBOYXR1cmFsIENB
MB4XDTI1MTExNDA0MTYzMVoXDTI2MTExNDA0MTYzMVowMTEiMCAGA1UEAwwZU2Ft
cGxlIFFFUyBOYXR1cmFsIFBlcnNvbjELMAkGA1UEBhMCR1IwggEiMA0GCSqGSIb3
DQEBAQUAA4IBDwAwggEKAoIBAQC8UWXOm5XKQlONkSfzmpirOeFUZvRo73RMgXB6
LpRJgopDrn1yJtEPwhfl4RDufoDwPdUIGBQwUiiCniSpKobJ8tay7/R79bG+CwI+
zuAiHtbxEIXOcRO4etODL1ss6oWObj6Xmss7Z0M928sGhYM4okwhWexC1QW8wv5m
prgYPdjBUQBoQq4cuacTzPh1MMmVfpH/rhyVU4wipDWUCtqH1KLCwZ8kCdvfqbUr
NAC6Va/7ZRTTpgrm4uaKOyLYTrKDwkd8UOa4LUG5Hex2hhKPv8xXKYwFl7I3V5P3
Fo/q1z6z08CIsuPNi85Wjot9G4dx9eTpdoaXwvZ6CyXs5p35AgMBAAGjgecwgeQw
CQYDVR0TBAIwADALBgNVHQ8EBAMCBeAwHQYDVR0lBBYwFAYIKwYBBQUHAwIGCCsG
AQUFBwMEMB0GA1UdDgQWBBQLEAU7LHXzcnyU35IeoKk6/cHpLjAfBgNVHSMEGDAW
gBQtIXDmMvYlv062E49vCFAeHk771zAyBgNVHR8EKzApMCegJaAjhiFodHRwOi8v
ZXhhbXBsZS5jb20vY3JsL3Flc19jYS5jcmwwNwYIKwYBBQUHAQEEKzApMCcGCCsG
AQUFBzABhhtodHRwOi8vZXhhbXBsZS5jb20vb2NzcC9xZXMwDQYJKoZIhvcNAQEL
BQADggGBACzT+MN8MkKvOkgVD+31sooRM9VKNcqGrwAFKl34ODhz/2IWVA//DUd+
O1+sV5pQ3Jig8OU6rlKw9TBMx+pDn7iHyP6At37d0hnfqyebE2A9dlnEuQLt/l1I
4nZsxiT3wX1rto+HeekcIvw5zD53jDwSWqApDkU86hZdpbkw7AcQThrGPinbAh35
qRamJFXmpAPY/85gIU97gviIhewkS/22bX4c/8pY8Kht5wRK0tc/guRUPTVuvyGJ
SaO8yefjXnSKn8SnVF1pmw5ktqhdtl7h+4fD6xZh3Ft4heCd3rxk/9XDGUG7Y+T9
SSJW03JpEw2coQ5LQ641lF98EWrwrY4dtwQ2gvcakyUWwgY/HgdLC590qFZ5A2YF
Pwlls4Tc0qztyePI18AoTzvD7VNCfMh4CTnY0f5BjOT0L28rw9C9rN4P7d74j6VU
DTx3MAriUQSM5NbfagDnP6uahx6ejXthV+OIGjdnw2BpropiDIAp4LLf17lon8MV
X6rdIW93mw==
-----END CERTIFICATE-----
